target datalayout = "e-m:e-p270:32:32-p271:32:32-p272:64:64-i64:64-i128:128-f80:128-n8:16:32:64-S128"
target triple = "x86_64-pc-linux-gnu"

%"class.std::__cxx11::basic_string" = type { %"struct.std::__cxx11::basic_string<char>::_Alloc_hider", i64, %union.anon }
%"struct.std::__cxx11::basic_string<char>::_Alloc_hider" = type { ptr }
%union.anon = type { i64, [8 x i8] }
%"class.duckdb_apache::thrift::TBase" = type { ptr }
%"class.duckdb::vector.18" = type { %"class.std::vector.19" }
%"class.std::vector.19" = type { %"struct.std::_Vector_base.20" }
%"struct.std::_Vector_base.20" = type { %"struct.std::_Vector_base<duckdb_parquet::KeyValue, std::allocator<duckdb_parquet::KeyValue>>::_Vector_impl" }
%"struct.std::_Vector_base<duckdb_parquet::KeyValue, std::allocator<duckdb_parquet::KeyValue>>::_Vector_impl" = type { %"struct.std::_Vector_base<duckdb_parquet::KeyValue, std::allocator<duckdb_parquet::KeyValue>>::_Vector_impl_data" }
%"struct.std::_Vector_base<duckdb_parquet::KeyValue, std::allocator<duckdb_parquet::KeyValue>>::_Vector_impl_data" = type { ptr, ptr, ptr }
%"class.duckdb_parquet::AesGcmV1" = type <{ %"class.duckdb_apache::thrift::TBase", %"class.std::__cxx11::basic_string", %"class.std::__cxx11::basic_string", i8, %"struct.duckdb_parquet::_AesGcmV1__isset", [6 x i8] }>
%"struct.duckdb_parquet::_AesGcmV1__isset" = type { i8 }
%"class.duckdb_parquet::AesGcmCtrV1" = type <{ %"class.duckdb_apache::thrift::TBase", %"class.std::__cxx11::basic_string", %"class.std::__cxx11::basic_string", i8, %"struct.duckdb_parquet::_AesGcmCtrV1__isset", [6 x i8] }>
%"struct.duckdb_parquet::_AesGcmCtrV1__isset" = type { i8 }
%"class.duckdb_parquet::EncryptionAlgorithm" = type <{ %"class.duckdb_apache::thrift::TBase", %"class.duckdb_parquet::AesGcmV1", %"class.duckdb_parquet::AesGcmCtrV1", %"struct.duckdb_parquet::_EncryptionAlgorithm__isset", [7 x i8] }>
%"struct.duckdb_parquet::_EncryptionAlgorithm__isset" = type { i8 }
%"class.duckdb_parquet::FileMetaData" = type <{ %"class.duckdb_apache::thrift::TBase", i32, [4 x i8], %"class.duckdb::vector.60", i64, %"class.duckdb::vector.66", %"class.duckdb::vector.18", %"class.std::__cxx11::basic_string", %"class.duckdb::vector.72", %"class.duckdb_parquet::EncryptionAlgorithm", %"class.std::__cxx11::basic_string", %"struct.duckdb_parquet::_FileMetaData__isset", [7 x i8] }>
%"class.duckdb::vector.60" = type { %"class.std::vector.61" }
%"class.std::vector.61" = type { %"struct.std::_Vector_base.62" }
%"struct.std::_Vector_base.62" = type { %"struct.std::_Vector_base<duckdb_parquet::SchemaElement, std::allocator<duckdb_parquet::SchemaElement>>::_Vector_impl" }
%"struct.std::_Vector_base<duckdb_parquet::SchemaElement, std::allocator<duckdb_parquet::SchemaElement>>::_Vector_impl" = type { %"struct.std::_Vector_base<duckdb_parquet::SchemaElement, std::allocator<duckdb_parquet::SchemaElement>>::_Vector_impl_data" }
%"struct.std::_Vector_base<duckdb_parquet::SchemaElement, std::allocator<duckdb_parquet::SchemaElement>>::_Vector_impl_data" = type { ptr, ptr, ptr }
%"class.duckdb::vector.66" = type { %"class.std::vector.67" }
%"class.std::vector.67" = type { %"struct.std::_Vector_base.68" }
%"struct.std::_Vector_base.68" = type { %"struct.std::_Vector_base<duckdb_parquet::RowGroup, std::allocator<duckdb_parquet::RowGroup>>::_Vector_impl" }
%"struct.std::_Vector_base<duckdb_parquet::RowGroup, std::allocator<duckdb_parquet::RowGroup>>::_Vector_impl" = type { %"struct.std::_Vector_base<duckdb_parquet::RowGroup, std::allocator<duckdb_parquet::RowGroup>>::_Vector_impl_data" }
%"struct.std::_Vector_base<duckdb_parquet::RowGroup, std::allocator<duckdb_parquet::RowGroup>>::_Vector_impl_data" = type { ptr, ptr, ptr }
%"class.duckdb::vector.72" = type { %"class.std::vector.73" }
%"class.std::vector.73" = type { %"struct.std::_Vector_base.74" }
%"struct.std::_Vector_base.74" = type { %"struct.std::_Vector_base<duckdb_parquet::ColumnOrder, std::allocator<duckdb_parquet::ColumnOrder>>::_Vector_impl" }
%"struct.std::_Vector_base<duckdb_parquet::ColumnOrder, std::allocator<duckdb_parquet::ColumnOrder>>::_Vector_impl" = type { %"struct.std::_Vector_base<duckdb_parquet::ColumnOrder, std::allocator<duckdb_parquet::ColumnOrder>>::_Vector_impl_data" }
%"struct.std::_Vector_base<duckdb_parquet::ColumnOrder, std::allocator<duckdb_parquet::ColumnOrder>>::_Vector_impl_data" = type { ptr, ptr, ptr }
%"struct.duckdb_parquet::_FileMetaData__isset" = type { i8 }

; Function Attrs: inlinehint mustprogress uwtable
define linkonce_odr noundef nonnull align 8 dereferenceable(24) ptr @_ZN6duckdb6vectorIN14duckdb_parquet11ColumnOrderELb1EEaSERKS3_(ptr noundef nonnull align 8 dereferenceable(24) %0, ptr noundef nonnull align 8 dereferenceable(24) %1) #5 comdat align 2 {
  %3 = alloca ptr, align 8
  %4 = alloca ptr, align 8
  store ptr %0, ptr %3, align 8, !tbaa !642
  store ptr %1, ptr %4, align 8, !tbaa !642
  %5 = load ptr, ptr %3, align 8
  %6 = load ptr, ptr %4, align 8, !tbaa !642
  %7 = call noundef nonnull align 8 dereferenceable(24) ptr @_ZNSt6vectorIN14duckdb_parquet11ColumnOrderESaIS1_EEaSERKS3_(ptr noundef nonnull align 8 dereferenceable(24) %5, ptr noundef nonnull align 8 dereferenceable(24) %6)
  ret ptr %5
}

; Function Attrs: mustprogress uwtable
define void @_ZN14duckdb_parquet12FileMetaData19__set_column_ordersERKN6duckdb6vectorINS_11ColumnOrderELb1EEE(ptr noundef nonnull align 8 dereferenceable(361) %0, ptr noundef nonnull align 8 dereferenceable(24) %1) #2 align 2 {
  %3 = alloca ptr, align 8
  %4 = alloca ptr, align 8
  store ptr %0, ptr %3, align 8, !tbaa !615
  store ptr %1, ptr %4, align 8, !tbaa !642
  %5 = load ptr, ptr %3, align 8
  %6 = load ptr, ptr %4, align 8, !tbaa !642
  %7 = getelementptr inbounds nuw %"class.duckdb_parquet::FileMetaData", ptr %5, i32 0, i32 8
  %8 = call noundef nonnull align 8 dereferenceable(24) ptr @_ZN6duckdb6vectorIN14duckdb_parquet11ColumnOrderELb1EEaSERKS3_(ptr noundef nonnull align 8 dereferenceable(24) %7, ptr noundef nonnull align 8 dereferenceable(24) %6)
  %9 = getelementptr inbounds nuw %"class.duckdb_parquet::FileMetaData", ptr %5, i32 0, i32 11
  %10 = load i8, ptr %9, align 8
  %11 = and i8 %10, -5
  %12 = or i8 %11, 4
  store i8 %12, ptr %9, align 8
  ret void
}